target datalayout = "e-m:e-p270:32:32-p271:32:32-p272:64:64-i64:64-i128:128-f80:128-n8:16:32:64-S128"
target triple = "x86_64-pc-linux-gnu"

%struct.lean_object = type { i32, i32 }
%struct.lean_ctor_object = type { %struct.lean_object, [0 x ptr] }

@l_Lean_Elab_Tactic_BVDecide_Frontend_Normalize_bv__and___lambda__5___closed__1 = internal global ptr null, align 8
@l_Lean_Elab_Tactic_BVDecide_Frontend_Normalize_bv__beq__self___lambda__1___closed__4 = internal global ptr null, align 8

; Function Attrs: inlinehint nounwind uwtable
define internal ptr @lean_to_ctor(ptr noundef %0) #4 {
  %2 = alloca ptr, align 8
  store ptr %0, ptr %2, align 8, !tbaa !4
  %3 = load ptr, ptr %2, align 8, !tbaa !4
  ret ptr %3
}

; Function Attrs: inlinehint nounwind uwtable
define internal zeroext i1 @lean_is_st(ptr noundef %0) #4 {
  %2 = alloca ptr, align 8
  store ptr %0, ptr %2, align 8, !tbaa !4
  %3 = load ptr, ptr %2, align 8, !tbaa !4
  %4 = getelementptr inbounds nuw %struct.lean_object, ptr %3, i32 0, i32 0
  %5 = load i32, ptr %4, align 4, !tbaa !13
  %6 = icmp sgt i32 %5, 0
  ret i1 %6
}

; Function Attrs: alwaysinline nounwind uwtable
define internal void @lean_dec_ref(ptr noundef %0) #0 {
  %2 = alloca ptr, align 8
  store ptr %0, ptr %2, align 8, !tbaa !4
  %3 = load ptr, ptr %2, align 8, !tbaa !4
  %4 = getelementptr inbounds nuw %struct.lean_object, ptr %3, i32 0, i32 0
  %5 = load i32, ptr %4, align 4, !tbaa !13
  %6 = icmp sgt i32 %5, 1
  %7 = zext i1 %6 to i32
  %8 = sext i32 %7 to i64
  %9 = call i64 @llvm.expect.i64(i64 %8, i64 1)
  %10 = icmp ne i64 %9, 0
  br i1 %10, label %11, label %16

11:                                               ; preds = %1
  %12 = load ptr, ptr %2, align 8, !tbaa !4
  %13 = getelementptr inbounds nuw %struct.lean_object, ptr %12, i32 0, i32 0
  %14 = load i32, ptr %13, align 4, !tbaa !13
  %15 = add i32 %14, -1
  store i32 %15, ptr %13, align 4, !tbaa !13
  br label %24

16:                                               ; preds = %1
  %17 = load ptr, ptr %2, align 8, !tbaa !4
  %18 = getelementptr inbounds nuw %struct.lean_object, ptr %17, i32 0, i32 0
  %19 = load i32, ptr %18, align 4, !tbaa !13
  %20 = icmp ne i32 %19, 0
  br i1 %20, label %21, label %23

21:                                               ; preds = %16
  %22 = load ptr, ptr %2, align 8, !tbaa !4
  call void @lean_dec_ref_cold(ptr noundef %22)
  br label %23

23:                                               ; preds = %21, %16
  br label %24

24:                                               ; preds = %23, %11
  ret void
}

; Function Attrs: inlinehint nounwind uwtable
define internal ptr @lean_ctor_obj_cptr(ptr noundef %0) #4 {
  %2 = alloca ptr, align 8
  store ptr %0, ptr %2, align 8, !tbaa !4
  %3 = load ptr, ptr %2, align 8, !tbaa !4
  %4 = call ptr @lean_to_ctor(ptr noundef %3)
  %5 = getelementptr inbounds nuw %struct.lean_ctor_object, ptr %4, i32 0, i32 1
  %6 = getelementptr inbounds [0 x ptr], ptr %5, i64 0, i64 0
  ret ptr %6
}

; Function Attrs: inlinehint nounwind uwtable
define internal void @lean_inc_ref(ptr noundef %0) #4 {
  %2 = alloca ptr, align 8
  store ptr %0, ptr %2, align 8, !tbaa !4
  %3 = load ptr, ptr %2, align 8, !tbaa !4
  %4 = call zeroext i1 @lean_is_st(ptr noundef %3)
  %5 = zext i1 %4 to i64
  %6 = call i64 @llvm.expect.i64(i64 %5, i64 1)
  %7 = icmp ne i64 %6, 0
  br i1 %7, label %8, label %13

8:                                                ; preds = %1
  %9 = load ptr, ptr %2, align 8, !tbaa !4
  %10 = getelementptr inbounds nuw %struct.lean_object, ptr %9, i32 0, i32 0
  %11 = load i32, ptr %10, align 4, !tbaa !13
  %12 = add i32 %11, 1
  store i32 %12, ptr %10, align 4, !tbaa !13
  br label %21

13:                                               ; preds = %1
  %14 = load ptr, ptr %2, align 8, !tbaa !4
  %15 = getelementptr inbounds nuw %struct.lean_object, ptr %14, i32 0, i32 0
  %16 = load i32, ptr %15, align 4, !tbaa !13
  %17 = icmp ne i32 %16, 0
  br i1 %17, label %18, label %20

18:                                               ; preds = %13
  %19 = load ptr, ptr %2, align 8, !tbaa !4
  call void @lean_inc_ref_cold(ptr noundef %19)
  br label %20

20:                                               ; preds = %18, %13
  br label %21

21:                                               ; preds = %20, %8
  ret void
}

; Function Attrs: alwaysinline nounwind uwtable
define internal zeroext i1 @lean_is_scalar(ptr noundef %0) #0 {
  %2 = alloca ptr, align 8
  store ptr %0, ptr %2, align 8, !tbaa !4
  %3 = load ptr, ptr %2, align 8, !tbaa !4
  %4 = ptrtoint ptr %3 to i64
  %5 = and i64 %4, 1
  %6 = icmp eq i64 %5, 1
  ret i1 %6
}

; Function Attrs: inlinehint nounwind uwtable
define internal ptr @lean_box(i64 noundef %0) #4 {
  %2 = alloca i64, align 8
  store i64 %0, ptr %2, align 8, !tbaa !8
  %3 = load i64, ptr %2, align 8, !tbaa !8
  %4 = shl i64 %3, 1
  %5 = or i64 %4, 1
  %6 = inttoptr i64 %5 to ptr
  ret ptr %6
}

; Function Attrs: alwaysinline nounwind uwtable
define internal void @lean_dec(ptr noundef %0) #0 {
  %2 = alloca ptr, align 8
  store ptr %0, ptr %2, align 8, !tbaa !4
  %3 = load ptr, ptr %2, align 8, !tbaa !4
  %4 = call zeroext i1 @lean_is_scalar(ptr noundef %3)
  br i1 %4, label %7, label %5

5:                                                ; preds = %1
  %6 = load ptr, ptr %2, align 8, !tbaa !4
  call void @lean_dec_ref(ptr noundef %6)
  br label %7

7:                                                ; preds = %5, %1
  ret void
}

; Function Attrs: inlinehint nounwind uwtable
define internal ptr @lean_ctor_get(ptr noundef %0, i32 noundef %1) #4 {
  %3 = alloca ptr, align 8
  %4 = alloca i32, align 4
  store ptr %0, ptr %3, align 8, !tbaa !4
  store i32 %1, ptr %4, align 4, !tbaa !11
  %5 = load ptr, ptr %3, align 8, !tbaa !4
  %6 = call ptr @lean_ctor_obj_cptr(ptr noundef %5)
  %7 = load i32, ptr %4, align 4, !tbaa !11
  %8 = zext i32 %7 to i64
  %9 = getelementptr inbounds nuw ptr, ptr %6, i64 %8
  %10 = load ptr, ptr %9, align 8, !tbaa !4
  ret ptr %10
}

; Function Attrs: alwaysinline nounwind uwtable
define internal void @lean_inc(ptr noundef %0) #0 {
  %2 = alloca ptr, align 8
  store ptr %0, ptr %2, align 8, !tbaa !4
  %3 = load ptr, ptr %2, align 8, !tbaa !4
  %4 = call zeroext i1 @lean_is_scalar(ptr noundef %3)
  br i1 %4, label %7, label %5

5:                                                ; preds = %1
  %6 = load ptr, ptr %2, align 8, !tbaa !4
  call void @lean_inc_ref(ptr noundef %6)
  br label %7

7:                                                ; preds = %5, %1
  ret void
}

; Function Attrs: nounwind uwtable
define ptr @l_Lean_Elab_Tactic_BVDecide_Frontend_Normalize_eqToBEq___lambda__2(ptr noundef %0, ptr noundef %1, ptr noundef %2, ptr noundef %3, ptr noundef %4, ptr noundef %5, ptr noundef %6, ptr noundef %7, ptr noundef %8, ptr noundef %9) #1 {
  %11 = alloca ptr, align 8
  %12 = alloca ptr, align 8
  %13 = alloca ptr, align 8
  %14 = alloca ptr, align 8
  %15 = alloca ptr, align 8
  %16 = alloca ptr, align 8
  %17 = alloca ptr, align 8
  %18 = alloca ptr, align 8
  %19 = alloca ptr, align 8
  %20 = alloca ptr, align 8
  %21 = alloca ptr, align 8
  %22 = alloca ptr, align 8
  %23 = alloca ptr, align 8
  %24 = alloca ptr, align 8
  %25 = alloca ptr, align 8
  %26 = alloca ptr, align 8
  %27 = alloca ptr, align 8
  %28 = alloca i8, align 1
  %29 = alloca ptr, align 8
  %30 = alloca ptr, align 8
  %31 = alloca i32, align 4
  %32 = alloca ptr, align 8
  %33 = alloca ptr, align 8
  store ptr %0, ptr %12, align 8, !tbaa !4
  store ptr %1, ptr %13, align 8, !tbaa !4
  store ptr %2, ptr %14, align 8, !tbaa !4
  store ptr %3, ptr %15, align 8, !tbaa !4
  store ptr %4, ptr %16, align 8, !tbaa !4
  store ptr %5, ptr %17, align 8, !tbaa !4
  store ptr %6, ptr %18, align 8, !tbaa !4
  store ptr %7, ptr %19, align 8, !tbaa !4
  store ptr %8, ptr %20, align 8, !tbaa !4
  store ptr %9, ptr %21, align 8, !tbaa !4
  br label %34

34:                                               ; preds = %10
  call void @llvm.lifetime.start.p0(i64 8, ptr %22) #7
  call void @llvm.lifetime.start.p0(i64 8, ptr %23) #7
  call void @llvm.lifetime.start.p0(i64 8, ptr %24) #7
  call void @llvm.lifetime.start.p0(i64 8, ptr %25) #7
  call void @llvm.lifetime.start.p0(i64 8, ptr %26) #7
  call void @llvm.lifetime.start.p0(i64 8, ptr %27) #7
  call void @llvm.lifetime.start.p0(i64 1, ptr %28) #7
  %35 = load ptr, ptr %13, align 8, !tbaa !4
  call void @lean_inc(ptr noundef %35)
  %36 = load ptr, ptr %13, align 8, !tbaa !4
  %37 = load ptr, ptr %17, align 8, !tbaa !4
  %38 = load ptr, ptr %18, align 8, !tbaa !4
  %39 = load ptr, ptr %19, align 8, !tbaa !4
  %40 = load ptr, ptr %20, align 8, !tbaa !4
  %41 = load ptr, ptr %21, align 8, !tbaa !4
  %42 = call ptr @l_Lean_Meta_instantiateMVarsIfMVarApp(ptr noundef %36, ptr noundef %37, ptr noundef %38, ptr noundef %39, ptr noundef %40, ptr noundef %41)
  store ptr %42, ptr %22, align 8, !tbaa !4
  %43 = load ptr, ptr %22, align 8, !tbaa !4
  %44 = call ptr @lean_ctor_get(ptr noundef %43, i32 noundef 0)
  store ptr %44, ptr %23, align 8, !tbaa !4
  %45 = load ptr, ptr %23, align 8, !tbaa !4
  call void @lean_inc(ptr noundef %45)
  %46 = load ptr, ptr %22, align 8, !tbaa !4
  %47 = call ptr @lean_ctor_get(ptr noundef %46, i32 noundef 1)
  store ptr %47, ptr %24, align 8, !tbaa !4
  %48 = load ptr, ptr %24, align 8, !tbaa !4
  call void @lean_inc(ptr noundef %48)
  %49 = load ptr, ptr %22, align 8, !tbaa !4
  call void @lean_dec(ptr noundef %49)
  %50 = load ptr, ptr @l_Lean_Elab_Tactic_BVDecide_Frontend_Normalize_bv__and___lambda__5___closed__1, align 8, !tbaa !4
  store ptr %50, ptr %25, align 8, !tbaa !4
  %51 = load ptr, ptr %23, align 8, !tbaa !4
  %52 = call ptr @l_Lean_Expr_cleanupAnnotations(ptr noundef %51)
  store ptr %52, ptr %26, align 8, !tbaa !4
  %53 = load ptr, ptr @l_Lean_Elab_Tactic_BVDecide_Frontend_Normalize_bv__beq__self___lambda__1___closed__4, align 8, !tbaa !4
  store ptr %53, ptr %27, align 8, !tbaa !4
  %54 = load ptr, ptr %26, align 8, !tbaa !4
  %55 = load ptr, ptr %27, align 8, !tbaa !4
  %56 = call zeroext i8 @l_Lean_Expr_isConstOf(ptr noundef %54, ptr noundef %55)
  store i8 %56, ptr %28, align 1, !tbaa !10
  %57 = load ptr, ptr %26, align 8, !tbaa !4
  call void @lean_dec(ptr noundef %57)
  %58 = load i8, ptr %28, align 1, !tbaa !10
  %59 = zext i8 %58 to i32
  %60 = icmp eq i32 %59, 0
  br i1 %60, label %61, label %79

61:                                               ; preds = %34
  call void @llvm.lifetime.start.p0(i64 8, ptr %29) #7
  call void @llvm.lifetime.start.p0(i64 8, ptr %30) #7
  %62 = call ptr @lean_box(i64 noundef 0)
  store ptr %62, ptr %29, align 8, !tbaa !4
  %63 = load ptr, ptr %13, align 8, !tbaa !4
  %64 = load ptr, ptr %12, align 8, !tbaa !4
  %65 = load ptr, ptr %29, align 8, !tbaa !4
  %66 = load ptr, ptr %14, align 8, !tbaa !4
  %67 = load ptr, ptr %15, align 8, !tbaa !4
  %68 = load ptr, ptr %16, align 8, !tbaa !4
  %69 = load ptr, ptr %17, align 8, !tbaa !4
  %70 = load ptr, ptr %18, align 8, !tbaa !4
  %71 = load ptr, ptr %19, align 8, !tbaa !4
  %72 = load ptr, ptr %20, align 8, !tbaa !4
  %73 = load ptr, ptr %24, align 8, !tbaa !4
  %74 = call ptr @l_Lean_Elab_Tactic_BVDecide_Frontend_Normalize_eqToBEq___lambda__1(ptr noundef %63, ptr noundef %64, ptr noundef %65, ptr noundef %66, ptr noundef %67, ptr noundef %68, ptr noundef %69, ptr noundef %70, ptr noundef %71, ptr noundef %72, ptr noundef %73)
  store ptr %74, ptr %30, align 8, !tbaa !4
  %75 = load ptr, ptr %16, align 8, !tbaa !4
  call void @lean_dec(ptr noundef %75)
  %76 = load ptr, ptr %15, align 8, !tbaa !4
  call void @lean_dec(ptr noundef %76)
  %77 = load ptr, ptr %14, align 8, !tbaa !4
  call void @lean_dec(ptr noundef %77)
  %78 = load ptr, ptr %30, align 8, !tbaa !4
  store ptr %78, ptr %11, align 8
  store i32 1, ptr %31, align 4
  call void @llvm.lifetime.end.p0(i64 8, ptr %30) #7
  call void @llvm.lifetime.end.p0(i64 8, ptr %29) #7
  br label %95

79:                                               ; preds = %34
  call void @llvm.lifetime.start.p0(i64 8, ptr %32) #7
  call void @llvm.lifetime.start.p0(i64 8, ptr %33) #7
  %80 = load ptr, ptr %13, align 8, !tbaa !4
  call void @lean_dec(ptr noundef %80)
  %81 = load ptr, ptr %12, align 8, !tbaa !4
  call void @lean_dec(ptr noundef %81)
  %82 = call ptr @lean_box(i64 noundef 0)
  store ptr %82, ptr %32, align 8, !tbaa !4
  %83 = load ptr, ptr %25, align 8, !tbaa !4
  %84 = load ptr, ptr %32, align 8, !tbaa !4
  %85 = load ptr, ptr %14, align 8, !tbaa !4
  %86 = load ptr, ptr %15, align 8, !tbaa !4
  %87 = load ptr, ptr %16, align 8, !tbaa !4
  %88 = load ptr, ptr %17, align 8, !tbaa !4
  %89 = load ptr, ptr %18, align 8, !tbaa !4
  %90 = load ptr, ptr %19, align 8, !tbaa !4
  %91 = load ptr, ptr %20, align 8, !tbaa !4
  %92 = load ptr, ptr %24, align 8, !tbaa !4
  %93 = call ptr @lean_apply_9(ptr noundef %83, ptr noundef %84, ptr noundef %85, ptr noundef %86, ptr noundef %87, ptr noundef %88, ptr noundef %89, ptr noundef %90, ptr noundef %91, ptr noundef %92)
  store ptr %93, ptr %33, align 8, !tbaa !4
  %94 = load ptr, ptr %33, align 8, !tbaa !4
  store ptr %94, ptr %11, align 8
  store i32 1, ptr %31, align 4
  call void @llvm.lifetime.end.p0(i64 8, ptr %33) #7
  call void @llvm.lifetime.end.p0(i64 8, ptr %32) #7
  br label %95

95:                                               ; preds = %79, %61
  call void @llvm.lifetime.end.p0(i64 1, ptr %28) #7
  call void @llvm.lifetime.end.p0(i64 8, ptr %27) #7
  call void @llvm.lifetime.end.p0(i64 8, ptr %26) #7
  call void @llvm.lifetime.end.p0(i64 8, ptr %25) #7
  call void @llvm.lifetime.end.p0(i64 8, ptr %24) #7
  call void @llvm.lifetime.end.p0(i64 8, ptr %23) #7
  call void @llvm.lifetime.end.p0(i64 8, ptr %22) #7
  %96 = load ptr, ptr %11, align 8
  ret ptr %96
}