; Function Attrs: nounwind uwtable
define ptr @l_Lean_Elab_Tactic_BVDecide_Frontend_Normalize_eqToBEq___lambda__2(ptr noundef %0, ptr noundef %1, ptr noundef %2, ptr noundef %3, ptr noundef %4, ptr noundef %5, ptr noundef %6, ptr noundef %7, ptr noundef %8, ptr noundef %9) #0 {
  %11 = ptrtoint ptr %1 to i64
  %12 = and i64 %11, 1
  %.not = icmp eq i64 %12, 0
  br i1 %.not, label %13, label %lean_inc.exit46

13:                                               ; preds = %10
  %.val.i = load i32, ptr %1, align 4, !tbaa !8
  %14 = icmp sgt i32 %.val.i, 0
  br i1 %14, label %15, label %17, !prof !11

15:                                               ; preds = %13
  %16 = add nuw i32 %.val.i, 1
  store i32 %16, ptr %1, align 4, !tbaa !8
  br label %lean_inc.exit46

17:                                               ; preds = %13
  %.not.i65 = icmp eq i32 %.val.i, 0
  br i1 %.not.i65, label %lean_inc.exit46, label %18

18:                                               ; preds = %17
  tail call void @lean_inc_ref_cold(ptr noundef nonnull %1) #5
  br label %lean_inc.exit46

lean_inc.exit46:                                  ; preds = %18, %17, %15, %10
  %19 = tail call ptr @l_Lean_Meta_instantiateMVarsIfMVarApp(ptr noundef %1, ptr noundef %5, ptr noundef %6, ptr noundef %7, ptr noundef %8, ptr noundef %9) #5
  %20 = getelementptr inbounds nuw i8, ptr %19, i64 8
  %21 = load ptr, ptr %20, align 8, !tbaa !4
  %22 = ptrtoint ptr %21 to i64
  %23 = and i64 %22, 1
  %.not72 = icmp eq i64 %23, 0
  br i1 %.not72, label %24, label %lean_inc.exit45

24:                                               ; preds = %lean_inc.exit46
  %.val.i66 = load i32, ptr %21, align 4, !tbaa !8
  %25 = icmp sgt i32 %.val.i66, 0
  br i1 %25, label %26, label %28, !prof !11

26:                                               ; preds = %24
  %27 = add nuw i32 %.val.i66, 1
  store i32 %27, ptr %21, align 4, !tbaa !8
  br label %lean_inc.exit45

28:                                               ; preds = %24
  %.not.i67 = icmp eq i32 %.val.i66, 0
  br i1 %.not.i67, label %lean_inc.exit45, label %29

29:                                               ; preds = %28
  tail call void @lean_inc_ref_cold(ptr noundef nonnull %21) #5
  br label %lean_inc.exit45

lean_inc.exit45:                                  ; preds = %29, %28, %26, %lean_inc.exit46
  %30 = getelementptr inbounds nuw i8, ptr %19, i64 16
  %31 = load ptr, ptr %30, align 8, !tbaa !4
  %32 = ptrtoint ptr %31 to i64
  %33 = and i64 %32, 1
  %.not73 = icmp eq i64 %33, 0
  br i1 %.not73, label %34, label %lean_inc.exit

34:                                               ; preds = %lean_inc.exit45
  %.val.i69 = load i32, ptr %31, align 4, !tbaa !8
  %35 = icmp sgt i32 %.val.i69, 0
  br i1 %35, label %36, label %38, !prof !11

36:                                               ; preds = %34
  %37 = add nuw i32 %.val.i69, 1
  store i32 %37, ptr %31, align 4, !tbaa !8
  br label %lean_inc.exit

38:                                               ; preds = %34
  %.not.i70 = icmp eq i32 %.val.i69, 0
  br i1 %.not.i70, label %lean_inc.exit, label %39

39:                                               ; preds = %38
  tail call void @lean_inc_ref_cold(ptr noundef nonnull %31) #5
  br label %lean_inc.exit

lean_inc.exit:                                    ; preds = %39, %38, %36, %lean_inc.exit45
  %40 = ptrtoint ptr %19 to i64
  %41 = and i64 %40, 1
  %.not74 = icmp eq i64 %41, 0
  br i1 %.not74, label %42, label %lean_dec.exit52

42:                                               ; preds = %lean_inc.exit
  %43 = load i32, ptr %19, align 4, !tbaa !8
  %44 = icmp sgt i32 %43, 1
  br i1 %44, label %45, label %47, !prof !11

45:                                               ; preds = %42
  %46 = add nsw i32 %43, -1
  store i32 %46, ptr %19, align 4, !tbaa !8
  br label %lean_dec.exit52

47:                                               ; preds = %42
  %.not.i = icmp eq i32 %43, 0
  br i1 %.not.i, label %lean_dec.exit52, label %48

48:                                               ; preds = %47
  tail call void @lean_dec_ref_cold(ptr noundef nonnull %19) #5
  br label %lean_dec.exit52

lean_dec.exit52:                                  ; preds = %48, %47, %45, %lean_inc.exit
  %49 = load ptr, ptr @l_Lean_Elab_Tactic_BVDecide_Frontend_Normalize_bv__and___lambda__5___closed__1, align 8, !tbaa !4
  %50 = tail call ptr @l_Lean_Expr_cleanupAnnotations(ptr noundef %21) #5
  %51 = load ptr, ptr @l_Lean_Elab_Tactic_BVDecide_Frontend_Normalize_bv__beq__self___lambda__1___closed__4, align 8, !tbaa !4
  %52 = tail call zeroext i8 @l_Lean_Expr_isConstOf(ptr noundef %50, ptr noundef %51) #5
  %53 = ptrtoint ptr %50 to i64
  %54 = and i64 %53, 1
  %.not75 = icmp eq i64 %54, 0
  br i1 %.not75, label %55, label %lean_dec.exit51

55:                                               ; preds = %lean_dec.exit52
  %56 = load i32, ptr %50, align 4, !tbaa !8
  %57 = icmp sgt i32 %56, 1
  br i1 %57, label %58, label %60, !prof !11

58:                                               ; preds = %55
  %59 = add nsw i32 %56, -1
  store i32 %59, ptr %50, align 4, !tbaa !8
  br label %lean_dec.exit51

60:                                               ; preds = %55
  %.not.i53 = icmp eq i32 %56, 0
  br i1 %.not.i53, label %lean_dec.exit51, label %61

61:                                               ; preds = %60
  tail call void @lean_dec_ref_cold(ptr noundef nonnull %50) #5
  br label %lean_dec.exit51

lean_dec.exit51:                                  ; preds = %61, %60, %58, %lean_dec.exit52
  %62 = icmp eq i8 %52, 0
  br i1 %62, label %63, label %92

63:                                               ; preds = %lean_dec.exit51
  %64 = tail call ptr @l_Lean_Elab_Tactic_BVDecide_Frontend_Normalize_eqToBEq___lambda__1(ptr noundef %1, ptr noundef %0, ptr nonnull poison, ptr poison, ptr poison, ptr poison, ptr noundef %5, ptr noundef %6, ptr noundef %7, ptr noundef %8, ptr noundef %31)
  %65 = ptrtoint ptr %4 to i64
  %66 = and i64 %65, 1
  %.not77 = icmp eq i64 %66, 0
  br i1 %.not77, label %67, label %lean_dec.exit50

67:                                               ; preds = %63
  %68 = load i32, ptr %4, align 4, !tbaa !8
  %69 = icmp sgt i32 %68, 1
  br i1 %69, label %70, label %72, !prof !11

70:                                               ; preds = %67
  %71 = add nsw i32 %68, -1
  store i32 %71, ptr %4, align 4, !tbaa !8
  br label %lean_dec.exit50

72:                                               ; preds = %67
  %.not.i55 = icmp eq i32 %68, 0
  br i1 %.not.i55, label %lean_dec.exit50, label %73

73:                                               ; preds = %72
  tail call void @lean_dec_ref_cold(ptr noundef nonnull %4) #5
  br label %lean_dec.exit50

lean_dec.exit50:                                  ; preds = %73, %72, %70, %63
  %74 = ptrtoint ptr %3 to i64
  %75 = and i64 %74, 1
  %.not78 = icmp eq i64 %75, 0
  br i1 %.not78, label %76, label %lean_dec.exit49

76:                                               ; preds = %lean_dec.exit50
  %77 = load i32, ptr %3, align 4, !tbaa !8
  %78 = icmp sgt i32 %77, 1
  br i1 %78, label %79, label %81, !prof !11

79:                                               ; preds = %76
  %80 = add nsw i32 %77, -1
  store i32 %80, ptr %3, align 4, !tbaa !8
  br label %lean_dec.exit49

81:                                               ; preds = %76
  %.not.i57 = icmp eq i32 %77, 0
  br i1 %.not.i57, label %lean_dec.exit49, label %82

82:                                               ; preds = %81
  tail call void @lean_dec_ref_cold(ptr noundef nonnull %3) #5
  br label %lean_dec.exit49

lean_dec.exit49:                                  ; preds = %82, %81, %79, %lean_dec.exit50
  %83 = ptrtoint ptr %2 to i64
  %84 = and i64 %83, 1
  %.not79 = icmp eq i64 %84, 0
  br i1 %.not79, label %85, label %lean_dec.exit48

85:                                               ; preds = %lean_dec.exit49
  %86 = load i32, ptr %2, align 4, !tbaa !8
  %87 = icmp sgt i32 %86, 1
  br i1 %87, label %88, label %90, !prof !11

88:                                               ; preds = %85
  %89 = add nsw i32 %86, -1
  store i32 %89, ptr %2, align 4, !tbaa !8
  br label %lean_dec.exit48

90:                                               ; preds = %85
  %.not.i59 = icmp eq i32 %86, 0
  br i1 %.not.i59, label %lean_dec.exit48, label %91

91:                                               ; preds = %90
  tail call void @lean_dec_ref_cold(ptr noundef nonnull %2) #5
  br label %lean_dec.exit48

92:                                               ; preds = %lean_dec.exit51
  br i1 %.not, label %93, label %lean_dec.exit47

93:                                               ; preds = %92
  %94 = load i32, ptr %1, align 4, !tbaa !8
  %95 = icmp sgt i32 %94, 1
  br i1 %95, label %96, label %98, !prof !11

96:                                               ; preds = %93
  %97 = add nsw i32 %94, -1
  store i32 %97, ptr %1, align 4, !tbaa !8
  br label %lean_dec.exit47

98:                                               ; preds = %93
  %.not.i61 = icmp eq i32 %94, 0
  br i1 %.not.i61, label %lean_dec.exit47, label %99

99:                                               ; preds = %98
  tail call void @lean_dec_ref_cold(ptr noundef nonnull %1) #5
  br label %lean_dec.exit47

lean_dec.exit47:                                  ; preds = %99, %98, %96, %92
  %100 = ptrtoint ptr %0 to i64
  %101 = and i64 %100, 1
  %.not76 = icmp eq i64 %101, 0
  br i1 %.not76, label %102, label %lean_dec.exit

102:                                              ; preds = %lean_dec.exit47
  %103 = load i32, ptr %0, align 4, !tbaa !8
  %104 = icmp sgt i32 %103, 1
  br i1 %104, label %105, label %107, !prof !11

105:                                              ; preds = %102
  %106 = add nsw i32 %103, -1
  store i32 %106, ptr %0, align 4, !tbaa !8
  br label %lean_dec.exit

107:                                              ; preds = %102
  %.not.i63 = icmp eq i32 %103, 0
  br i1 %.not.i63, label %lean_dec.exit, label %108

108:                                              ; preds = %107
  tail call void @lean_dec_ref_cold(ptr noundef nonnull %0) #5
  br label %lean_dec.exit

lean_dec.exit:                                    ; preds = %108, %107, %105, %lean_dec.exit47
  %109 = tail call ptr @lean_apply_9(ptr noundef %49, ptr noundef nonnull inttoptr (i64 1 to ptr), ptr noundef %2, ptr noundef %3, ptr noundef %4, ptr noundef %5, ptr noundef %6, ptr noundef %7, ptr noundef %8, ptr noundef %31) #5
  br label %lean_dec.exit48

lean_dec.exit48:                                  ; preds = %lean_dec.exit49, %88, %90, %91, %lean_dec.exit
  %.0 = phi ptr [ %109, %lean_dec.exit ], [ %64, %91 ], [ %64, %90 ], [ %64, %88 ], [ %64, %lean_dec.exit49 ]
  ret ptr %.0
}